target datalayout = "e-m:e-p270:32:32-p271:32:32-p272:64:64-i64:64-i128:128-f80:128-n8:16:32:64-S128"
target triple = "x86_64-pc-linux-gnu"

%struct.cli_matcher = type { i32, ptr, ptr, ptr, ptr, i32, i32, i32, i32, i32, %struct.cli_hash_patt, %struct.cli_hash_wild, i32, i32, i32, i32, i32, ptr, ptr, ptr, ptr, ptr, ptr, i32, i32, i8, i8, ptr, i16, i8, i32, ptr, i32, i32, i32, ptr, ptr, i32, ptr, i64, i64, ptr }
%struct.cli_hash_patt = type { [3 x %struct.cli_htu32] }
%struct.cli_htu32 = type { ptr, i64, i64, i64 }
%struct.cli_hash_wild = type { [3 x %struct.cli_sz_hash] }
%struct.cli_sz_hash = type { ptr, ptr, i32 }

@.str.5 = private unnamed_addr constant [47 x i8] c"root->mempool && \22mempool must be initialized\22\00", align 1
@.str.6 = private unnamed_addr constant [114 x i8] c"generated/home/dtcxzyw/WorkSpace/Projects/compilers/llvm-opt-benchmark/bench/clamav/clamav/libclamav/matcher-bm.c\00", align 1
@__PRETTY_FUNCTION__.cli_bm_init = private unnamed_addr constant [45 x i8] c"cl_error_t cli_bm_init(struct cli_matcher *)\00", align 1

; Function Attrs: nounwind uwtable
define i32 @cli_bm_init(ptr noundef %0) #0 {
  %2 = alloca i32, align 4
  %3 = alloca ptr, align 8
  %4 = alloca i16, align 2
  %5 = alloca i16, align 2
  store ptr %0, ptr %3, align 8
  store i16 -2040, ptr %5, align 2
  %6 = load ptr, ptr %3, align 8
  %7 = getelementptr inbounds %struct.cli_matcher, ptr %6, i32 0, i32 41
  %8 = load ptr, ptr %7, align 8
  %9 = icmp ne ptr %8, null
  br i1 %9, label %10, label %12

10:                                               ; preds = %1
  br i1 true, label %11, label %12

11:                                               ; preds = %10
  br label %13

12:                                               ; preds = %10, %1
  call void @__assert_fail(ptr noundef @.str.5, ptr noundef @.str.6, i32 noundef 141, ptr noundef @__PRETTY_FUNCTION__.cli_bm_init) #5
  unreachable

13:                                               ; preds = %11
  %14 = load ptr, ptr %3, align 8
  %15 = getelementptr inbounds %struct.cli_matcher, ptr %14, i32 0, i32 41
  %16 = load ptr, ptr %15, align 8
  %17 = load i16, ptr %5, align 2
  %18 = zext i16 %17 to i64
  %19 = call ptr @mpool_calloc(ptr noundef %16, i64 noundef %18, i64 noundef 1)
  %20 = load ptr, ptr %3, align 8
  %21 = getelementptr inbounds %struct.cli_matcher, ptr %20, i32 0, i32 1
  store ptr %19, ptr %21, align 8
  %22 = icmp ne ptr %19, null
  br i1 %22, label %24, label %23

23:                                               ; preds = %13
  store i32 20, ptr %2, align 4
  br label %59

24:                                               ; preds = %13
  %25 = load ptr, ptr %3, align 8
  %26 = getelementptr inbounds %struct.cli_matcher, ptr %25, i32 0, i32 41
  %27 = load ptr, ptr %26, align 8
  %28 = load i16, ptr %5, align 2
  %29 = zext i16 %28 to i64
  %30 = call ptr @mpool_calloc(ptr noundef %27, i64 noundef %29, i64 noundef 8)
  %31 = load ptr, ptr %3, align 8
  %32 = getelementptr inbounds %struct.cli_matcher, ptr %31, i32 0, i32 2
  store ptr %30, ptr %32, align 8
  %33 = icmp ne ptr %30, null
  br i1 %33, label %41, label %34

34:                                               ; preds = %24
  %35 = load ptr, ptr %3, align 8
  %36 = getelementptr inbounds %struct.cli_matcher, ptr %35, i32 0, i32 41
  %37 = load ptr, ptr %36, align 8
  %38 = load ptr, ptr %3, align 8
  %39 = getelementptr inbounds %struct.cli_matcher, ptr %38, i32 0, i32 1
  %40 = load ptr, ptr %39, align 8
  call void @mpool_free(ptr noundef %37, ptr noundef %40)
  store i32 20, ptr %2, align 4
  br label %59

41:                                               ; preds = %24
  store i16 0, ptr %4, align 2
  br label %42

42:                                               ; preds = %55, %41
  %43 = load i16, ptr %4, align 2
  %44 = zext i16 %43 to i32
  %45 = load i16, ptr %5, align 2
  %46 = zext i16 %45 to i32
  %47 = icmp slt i32 %44, %46
  br i1 %47, label %48, label %58

48:                                               ; preds = %42
  %49 = load ptr, ptr %3, align 8
  %50 = getelementptr inbounds %struct.cli_matcher, ptr %49, i32 0, i32 1
  %51 = load ptr, ptr %50, align 8
  %52 = load i16, ptr %4, align 2
  %53 = zext i16 %52 to i64
  %54 = getelementptr inbounds i8, ptr %51, i64 %53
  store i8 1, ptr %54, align 1
  br label %55

55:                                               ; preds = %48
  %56 = load i16, ptr %4, align 2
  %57 = add i16 %56, 1
  store i16 %57, ptr %4, align 2
  br label %42

58:                                               ; preds = %42
  store i32 0, ptr %2, align 4
  br label %59

59:                                               ; preds = %58, %34, %23
  %60 = load i32, ptr %2, align 4
  ret i32 %60
}