; Function Attrs: nounwind uwtable
define noundef i32 @cli_bm_init(ptr nocapture noundef %0) local_unnamed_addr #0 {
  %2 = getelementptr inbounds i8, ptr %0, i64 408
  %3 = load ptr, ptr %2, align 8
  %.not = icmp eq ptr %3, null
  br i1 %.not, label %4, label %5

4:                                                ; preds = %1
  tail call void @__assert_fail(ptr noundef nonnull @.str.5, ptr noundef nonnull @.str.6, i32 noundef 141, ptr noundef nonnull @__PRETTY_FUNCTION__.cli_bm_init) #9
  unreachable

5:                                                ; preds = %1
  %6 = tail call ptr @mpool_calloc(ptr noundef nonnull %3, i64 noundef 63496, i64 noundef 1) #8
  %7 = getelementptr inbounds i8, ptr %0, i64 8
  store ptr %6, ptr %7, align 8
  %.not16 = icmp eq ptr %6, null
  br i1 %.not16, label %.loopexit, label %8

8:                                                ; preds = %5
  %9 = load ptr, ptr %2, align 8
  %10 = tail call ptr @mpool_calloc(ptr noundef %9, i64 noundef 63496, i64 noundef 8) #8
  %11 = getelementptr inbounds i8, ptr %0, i64 16
  store ptr %10, ptr %11, align 8
  %.not17 = icmp eq ptr %10, null
  br i1 %.not17, label %12, label %.preheader

12:                                               ; preds = %8
  %13 = load ptr, ptr %2, align 8
  %14 = load ptr, ptr %7, align 8
  tail call void @mpool_free(ptr noundef %13, ptr noundef %14) #8
  br label %.loopexit

.preheader:                                       ; preds = %8, %.preheader
  %indvars.iv = phi i64 [ %indvars.iv.next, %.preheader ], [ 0, %8 ]
  %15 = load ptr, ptr %7, align 8
  %16 = getelementptr inbounds i8, ptr %15, i64 %indvars.iv
  store i8 1, ptr %16, align 1
  %indvars.iv.next = add nuw nsw i64 %indvars.iv, 1
  %exitcond.not = icmp eq i64 %indvars.iv.next, 63496
  br i1 %exitcond.not, label %.loopexit, label %.preheader

.loopexit:                                        ; preds = %.preheader, %5, %12
  %.0 = phi i32 [ 20, %12 ], [ 20, %5 ], [ 0, %.preheader ]
  ret i32 %.0
}